Certificate:
    Data:
        Version: 3 (0x2)
        Serial Number:
            fd:20:ec:b5:7c:5d:78:85
        Signature Algorithm: sha1WithRSAEncryption
        Issuer: C=US, ST=Oregon, O=Touchstone Technology, OU=Engineering, CN=touchstonetech.comm/emailAddress=bbenson@touchstonetech.com
        Validity
            Not Before: Nov 14 03:17:11 2011 GMT
            Not After : Mar 31 03:17:11 2039 GMT
        Subject: C=US, ST=Oregon, L=Albany, O=touchstonetech, OU=engineering, CN=debbdc.brianvmnat.com/emailAddress=bbenson@touchstonetech.com
        Subject Public Key Info:
            Public Key Algorithm: rsaEncryption
                Public-Key: (1024 bit)
                Modulus:
                    00:c7:3b:4f:ed:ea:84:02:79:2d:10:82:bd:25:59:
                    75:ab:ec:26:f8:f7:06:17:53:be:7c:b1:7e:3f:cf:
                    9e:08:f0:1a:d9:10:2d:e5:09:ed:29:12:14:68:38:
                    e7:ec:17:22:70:e3:e2:e8:15:34:14:34:8b:a0:dc:
                    50:8a:6d:82:db:85:fd:e8:c7:80:5c:7a:99:31:01:
                    2c:b5:8c:08:3a:34:2a:bc:f4:25:56:c3:d2:65:0f:
                    69:9b:db:7d:80:37:32:dc:1f:9e:f7:21:14:d6:4f:
                    e9:fd:dc:b7:4c:c6:17:4b:2f:08:c8:01:f1:95:7d:
                    1e:be:2e:1d:73:b1:67:41:11
                Exponent: 65537 (0x10001)
        X509v3 extensions:
            X509v3 Basic Constraints: 
                CA:FALSE
            Netscape Comment: 
                OpenSSL Generated Certificate
            X509v3 Subject Key Identifier: 
                29:EC:F1:73:7C:A6:66:78:E6:F0:13:28:A7:AE:AA:70:A2:16:48:2E
            X509v3 Authority Key Identifier: 
                keyid:E7:D7:7F:7B:75:75:5E:D2:29:B4:39:35:26:D6:EA:18:C8:A6:27:80

    Signature Algorithm: sha1WithRSAEncryption
        5b:3f:f9:68:59:b7:f2:4d:24:1f:77:59:65:f3:47:59:d6:f4:
        0e:07:cb:ec:fd:8c:3f:a2:12:0c:cd:5b:6a:d7:ca:b0:c0:9c:
        6a:16:cb:94:81:a3:85:01:b6:62:cf:80:e1:05:3f:13:69:e4:
        69:86:78:99:f8:a5:cc:f3:16:fe:96:5a:4f:04:0f:4b:11:39:
        16:22:20:64:97:aa:f0:34:8d:6a:32:97:d8:80:d3:21:f4:e5:
        86:7a:a7:8a:18:54:be:c2:cd:97:c1:4e:7a:db:29:b3:dd:e6:
        d8:fc:d3:de:99:d9:f5:80:9e:1e:6d:b0:60:e9:33:c9:c8:d9:
        21:02
-----BEGIN CERTIFICATE-----
MIIDQTCCAqqgAwIBAgIJAP0g7LV8XXiFMA0GCSqGSIb3DQEBBQUAMIGdMQswCQYD
VQQGEwJVUzEPMA0GA1UECAwGT3JlZ29uMR4wHAYDVQQKDBVUb3VjaHN0b25lIFRl
Y2hub2xvZ3kxFDASBgNVBAsMC0VuZ2luZWVyaW5nMRwwGgYDVQQDDBN0b3VjaHN0
b25ldGVjaC5jb21tMSkwJwYJKoZIhvcNAQkBFhpiYmVuc29uQHRvdWNoc3RvbmV0
ZWNoLmNvbTAeFw0xMTExMTQwMzE3MTFaFw0zOTAzMzEwMzE3MTFaMIGpMQswCQYD
VQQGEwJVUzEPMA0GA1UECAwGT3JlZ29uMQ8wDQYDVQQHDAZBbGJhbnkxFzAVBgNV
BAoMDnRvdWNoc3RvbmV0ZWNoMRQwEgYDVQQLDAtlbmdpbmVlcmluZzEeMBwGA1UE
AwwVZGViYmRjLmJyaWFudm1uYXQuY29tMSkwJwYJKoZIhvcNAQkBFhpiYmVuc29u
QHRvdWNoc3RvbmV0ZWNoLmNvbTCBnzANBgkqhkiG9w0BAQEFAAOBjQAwgYkCgYEA
xztP7eqEAnktEIK9JVl1q+wm+PcGF1O+fLF+P8+eCPAa2RAt5QntKRIUaDjn7Bci
cOPi6BU0FDSLoNxQim2C24X96MeAXHqZMQEstYwIOjQqvPQlVsPSZQ9pm9t9gDcy
3B+e9yEU1k/p/dy3TMYXSy8IyAHxlX0evi4dc7FnQRECAwEAAaN7MHkwCQYDVR0T
BAIwADAsBglghkgBhvhCAQ0EHxYdT3BlblNTTCBHZW5lcmF0ZWQgQ2VydGlmaWNh
dGUwHQYDVR0OBBYEFCns8XN8pmZ45vATKKeuqnCiFkguMB8GA1UdIwQYMBaAFOfX
f3t1dV7SKbQ5NSbW6hjIpieAMA0GCSqGSIb3DQEBBQUAA4GBAFs/+WhZt/JNJB93
WWXzR1nW9A4Hy+z9jD+iEgzNW2rXyrDAnGoWy5SBo4UBtmLPgOEFPxNp5GmGeJn4
pczzFv6WWk8ED0sRORYiIGSXqvA0jWoyl9iA0yH05YZ6p4oYVL7CzZfBTnrbKbPd
5tj8096Z2fWAnh5tsGDpM8nI2SEC
-----END CERTIFICATE-----
