Certificate:
    Data:
        Version: 3 (0x2)
        Serial Number:
            fd:20:ec:b5:7c:5d:78:83
        Signature Algorithm: sha1WithRSAEncryption
        Issuer: C=US, ST=Oregon, O=Touchstone Technology, OU=Engineering, CN=touchstonetech.comm/emailAddress=bbenson@touchstonetech.com
        Validity
            Not Before: Nov 14 03:00:10 2011 GMT
            Not After : Nov 13 03:00:10 2014 GMT
        Subject: C=US, ST=Oregon, O=Touchstone Technology, OU=Engineering, CN=touchstonetech.comm/emailAddress=bbenson@touchstonetech.com
        Subject Public Key Info:
            Public Key Algorithm: rsaEncryption
                Public-Key: (1024 bit)
                Modulus:
                    00:fa:65:36:34:82:06:20:e3:15:98:0c:5e:26:51:
                    33:5a:18:3f:f9:33:77:27:04:26:1a:e0:7c:66:3d:
                    f7:2e:9e:95:28:2a:b1:10:eb:84:5b:70:3f:dd:3d:
                    27:02:03:c8:25:52:cc:c7:79:6c:9e:84:5b:8f:54:
                    d1:aa:1c:63:aa:36:c9:76:09:53:bb:e7:b4:02:68:
                    f0:5e:68:3c:af:dd:1b:0a:e4:9c:5f:57:99:c5:e5:
                    ac:13:8a:72:56:b0:f0:1a:88:ea:5b:58:b6:2d:7b:
                    ec:3d:fa:ec:bb:b7:af:b2:2a:48:05:c1:61:15:b0:
                    1f:e4:d1:8a:bc:bf:7f:87:2d
                Exponent: 65537 (0x10001)
        X509v3 extensions:
            X509v3 Subject Key Identifier: 
                E7:D7:7F:7B:75:75:5E:D2:29:B4:39:35:26:D6:EA:18:C8:A6:27:80
            X509v3 Authority Key Identifier: 
                keyid:E7:D7:7F:7B:75:75:5E:D2:29:B4:39:35:26:D6:EA:18:C8:A6:27:80

            X509v3 Basic Constraints: 
                CA:TRUE
    Signature Algorithm: sha1WithRSAEncryption
        53:c3:8b:b1:3e:31:71:df:4c:89:a0:64:03:03:5b:39:9d:be:
        39:73:fa:53:b9:8a:e5:0b:01:c5:f7:15:91:0e:b1:7d:30:85:
        2d:5d:f7:e0:41:cc:0f:37:0b:9a:a8:e6:c0:a4:f0:7f:94:22:
        4f:aa:2f:51:db:0b:25:5b:ba:fe:5d:08:a2:60:cb:49:1a:64:
        c8:23:c7:8d:3e:51:b0:2d:0d:28:56:44:61:c3:ce:e4:00:a8:
        16:3a:56:83:c7:4b:7e:05:a6:e4:fe:57:68:bc:83:de:bf:37:
        ec:4f:27:1e:72:bf:25:6a:b4:01:1f:03:0a:28:08:68:0c:c8:
        c6:0d
-----BEGIN CERTIFICATE-----
MIIDCjCCAnOgAwIBAgIJAP0g7LV8XXiDMA0GCSqGSIb3DQEBBQUAMIGdMQswCQYD
VQQGEwJVUzEPMA0GA1UECAwGT3JlZ29uMR4wHAYDVQQKDBVUb3VjaHN0b25lIFRl
Y2hub2xvZ3kxFDASBgNVBAsMC0VuZ2luZWVyaW5nMRwwGgYDVQQDDBN0b3VjaHN0
b25ldGVjaC5jb21tMSkwJwYJKoZIhvcNAQkBFhpiYmVuc29uQHRvdWNoc3RvbmV0
ZWNoLmNvbTAeFw0xMTExMTQwMzAwMTBaFw0xNDExMTMwMzAwMTBaMIGdMQswCQYD
VQQGEwJVUzEPMA0GA1UECAwGT3JlZ29uMR4wHAYDVQQKDBVUb3VjaHN0b25lIFRl
Y2hub2xvZ3kxFDASBgNVBAsMC0VuZ2luZWVyaW5nMRwwGgYDVQQDDBN0b3VjaHN0
b25ldGVjaC5jb21tMSkwJwYJKoZIhvcNAQkBFhpiYmVuc29uQHRvdWNoc3RvbmV0
ZWNoLmNvbTCBnzANBgkqhkiG9w0BAQEFAAOBjQAwgYkCgYEA+mU2NIIGIOMVmAxe
JlEzWhg/+TN3JwQmGuB8Zj33Lp6VKCqxEOuEW3A/3T0nAgPIJVLMx3lsnoRbj1TR
qhxjqjbJdglTu+e0AmjwXmg8r90bCuScX1eZxeWsE4pyVrDwGojqW1i2LXvsPfrs
u7evsipIBcFhFbAf5NGKvL9/hy0CAwEAAaNQME4wHQYDVR0OBBYEFOfXf3t1dV7S
KbQ5NSbW6hjIpieAMB8GA1UdIwQYMBaAFOfXf3t1dV7SKbQ5NSbW6hjIpieAMAwG
A1UdEwQFMAMBAf8wDQYJKoZIhvcNAQEFBQADgYEAU8OLsT4xcd9MiaBkAwNbOZ2+
OXP6U7mK5QsBxfcVkQ6xfTCFLV334EHMDzcLmqjmwKTwf5QiT6ovUdsLJVu6/l0I
omDLSRpkyCPHjT5RsC0NKFZEYcPO5ACoFjpWg8dLfgWm5P5XaLyD3r837E8nHnK/
JWq0AR8DCigIaAzIxg0=
-----END CERTIFICATE-----
