Certificate:
    Data:
        Version: 3 (0x2)
        Serial Number:
            fd:20:ec:b5:7c:5d:78:86
        Signature Algorithm: sha1WithRSAEncryption
        Issuer: C=US, ST=Oregon, O=Touchstone Technology, OU=Engineering, CN=touchstonetech.comm/emailAddress=bbenson@touchstonetech.com
        Validity
            Not Before: Nov 14 03:28:22 2011 GMT
            Not After : Mar 31 03:28:22 2039 GMT
        Subject: C=US, ST=Oregon, L=Albany, O=Touchstone Technology, OU=Engineering, CN=debsamba.brianvmnat.com/emailAddress=bbenson@touchstonetech.com
        Subject Public Key Info:
            Public Key Algorithm: rsaEncryption
                Public-Key: (1024 bit)
                Modulus:
                    00:ba:bd:5a:ba:64:6d:14:ff:f2:fa:71:77:02:c4:
                    c7:eb:cb:e7:51:bd:c4:30:e4:23:32:97:15:64:2d:
                    52:af:88:46:36:5c:61:61:e8:c2:58:c3:b1:a8:ca:
                    b5:a5:bd:19:f7:50:dc:8d:ac:1c:8b:43:2f:32:e5:
                    64:f5:25:12:c9:19:a4:4b:87:f5:c6:43:83:0b:0a:
                    3f:20:2c:96:79:b7:b4:39:2d:ec:56:a5:38:cc:1d:
                    13:ec:fe:60:4a:55:c3:5c:be:8a:48:ad:fc:b9:50:
                    de:34:fe:1e:4e:68:8f:4e:8d:97:1c:5c:60:ad:ea:
                    6c:3a:8d:8d:c5:18:e7:5c:ef
                Exponent: 65537 (0x10001)
        X509v3 extensions:
            X509v3 Basic Constraints: 
                CA:FALSE
            Netscape Comment: 
                OpenSSL Generated Certificate
            X509v3 Subject Key Identifier: 
                5A:BD:22:BA:5F:52:11:CA:78:99:19:83:02:25:90:3F:EF:E4:4C:D7
            X509v3 Authority Key Identifier: 
                keyid:E7:D7:7F:7B:75:75:5E:D2:29:B4:39:35:26:D6:EA:18:C8:A6:27:80

    Signature Algorithm: sha1WithRSAEncryption
        fa:03:bb:32:76:06:b8:c4:40:61:12:83:e6:0f:16:d5:22:cb:
        71:1e:67:c1:4a:39:eb:6f:52:08:ca:74:46:11:20:b1:e3:da:
        5d:c2:ad:03:94:30:6e:c2:25:5b:56:0f:0b:e5:4c:36:fc:8d:
        a3:c5:d9:bd:a3:db:77:4d:af:f5:4f:1f:9f:60:68:6a:c8:13:
        dc:5d:86:89:43:9d:61:8c:49:50:84:5b:4e:bf:1f:ea:1b:e1:
        39:be:ac:a0:d6:59:12:58:6c:da:35:b0:b0:74:3c:36:77:4f:
        e1:e3:8c:eb:78:f2:62:55:2e:d6:42:65:0b:ac:f9:05:e7:4c:
        08:8f
-----BEGIN CERTIFICATE-----
MIIDSjCCArOgAwIBAgIJAP0g7LV8XXiGMA0GCSqGSIb3DQEBBQUAMIGdMQswCQYD
VQQGEwJVUzEPMA0GA1UECAwGT3JlZ29uMR4wHAYDVQQKDBVUb3VjaHN0b25lIFRl
Y2hub2xvZ3kxFDASBgNVBAsMC0VuZ2luZWVyaW5nMRwwGgYDVQQDDBN0b3VjaHN0
b25ldGVjaC5jb21tMSkwJwYJKoZIhvcNAQkBFhpiYmVuc29uQHRvdWNoc3RvbmV0
ZWNoLmNvbTAeFw0xMTExMTQwMzI4MjJaFw0zOTAzMzEwMzI4MjJaMIGyMQswCQYD
VQQGEwJVUzEPMA0GA1UECBMGT3JlZ29uMQ8wDQYDVQQHEwZBbGJhbnkxHjAcBgNV
BAoTFVRvdWNoc3RvbmUgVGVjaG5vbG9neTEUMBIGA1UECxMLRW5naW5lZXJpbmcx
IDAeBgNVBAMTF2RlYnNhbWJhLmJyaWFudm1uYXQuY29tMSkwJwYJKoZIhvcNAQkB
FhpiYmVuc29uQHRvdWNoc3RvbmV0ZWNoLmNvbTCBnzANBgkqhkiG9w0BAQEFAAOB
jQAwgYkCgYEAur1aumRtFP/y+nF3AsTH68vnUb3EMOQjMpcVZC1Sr4hGNlxhYejC
WMOxqMq1pb0Z91Dcjawci0MvMuVk9SUSyRmkS4f1xkODCwo/ICyWebe0OS3sVqU4
zB0T7P5gSlXDXL6KSK38uVDeNP4eTmiPTo2XHFxgrepsOo2NxRjnXO8CAwEAAaN7
MHkwCQYDVR0TBAIwADAsBglghkgBhvhCAQ0EHxYdT3BlblNTTCBHZW5lcmF0ZWQg
Q2VydGlmaWNhdGUwHQYDVR0OBBYEFFq9IrpfUhHKeJkZgwIlkD/v5EzXMB8GA1Ud
IwQYMBaAFOfXf3t1dV7SKbQ5NSbW6hjIpieAMA0GCSqGSIb3DQEBBQUAA4GBAPoD
uzJ2BrjEQGESg+YPFtUiy3EeZ8FKOetvUgjKdEYRILHj2l3CrQOUMG7CJVtWDwvl
TDb8jaPF2b2j23dNr/VPH59gaGrIE9xdholDnWGMSVCEW06/H+ob4Tm+rKDWWRJY
bNo1sLB0PDZ3T+HjjOt48mJVLtZCZQus+QXnTAiP
-----END CERTIFICATE-----
